target datalayout = "e-m:e-p270:32:32-p271:32:32-p272:64:64-i64:64-i128:128-f80:128-n8:16:32:64-S128"
target triple = "x86_64-pc-linux-gnu"

%"class.icu_77::RegexMatcher" = type { %"class.icu_77::UObject", ptr, ptr, ptr, ptr, ptr, i64, i32, i64, i64, i64, i64, i64, i64, i64, i64, i8, i8, i8, i64, i64, i64, i64, i8, i8, ptr, ptr, ptr, [8 x i64], i32, i32, i32, i32, ptr, ptr, ptr, ptr, i8, i8, i32, ptr, ptr }
%"class.icu_77::UObject" = type { ptr }

; Function Attrs: inlinehint mustprogress nounwind uwtable
define internal noundef signext i8 @_ZL9U_FAILURE10UErrorCode(i32 noundef %0) #2 {
  %2 = alloca i32, align 4
  store i32 %0, ptr %2, align 4, !tbaa !15
  %3 = load i32, ptr %2, align 4, !tbaa !15
  %4 = icmp sgt i32 %3, 0
  %5 = zext i1 %4 to i8
  ret i8 %5
}

; Function Attrs: mustprogress uwtable
define void @_ZN6icu_7712RegexMatcher16setMatchCallbackEPFaPKviES2_R10UErrorCode(ptr noundef nonnull align 8 dereferenceable(336) %0, ptr noundef %1, ptr noundef %2, ptr noundef nonnull align 4 dereferenceable(4) %3) unnamed_addr #1 align 2 {
  %5 = alloca ptr, align 8
  %6 = alloca ptr, align 8
  %7 = alloca ptr, align 8
  %8 = alloca ptr, align 8
  store ptr %0, ptr %5, align 8, !tbaa !23
  store ptr %1, ptr %6, align 8, !tbaa !22
  store ptr %2, ptr %7, align 8, !tbaa !22
  store ptr %3, ptr %8, align 8, !tbaa !22
  %9 = load ptr, ptr %5, align 8
  %10 = load ptr, ptr %8, align 8, !tbaa !22
  %11 = load i32, ptr %10, align 4, !tbaa !15
  %12 = call noundef signext i8 @_ZL9U_FAILURE10UErrorCode(i32 noundef %11)
  %13 = icmp ne i8 %12, 0
  br i1 %13, label %14, label %15

14:                                               ; preds = %4
  br label %20

15:                                               ; preds = %4
  %16 = load ptr, ptr %6, align 8, !tbaa !22
  %17 = getelementptr inbounds nuw %"class.icu_77::RegexMatcher", ptr %9, i32 0, i32 33
  store ptr %16, ptr %17, align 8, !tbaa !79
  %18 = load ptr, ptr %7, align 8, !tbaa !22
  %19 = getelementptr inbounds nuw %"class.icu_77::RegexMatcher", ptr %9, i32 0, i32 34
  store ptr %18, ptr %19, align 8, !tbaa !80
  br label %20

20:                                               ; preds = %15, %14
  ret void
}